target datalayout = "e-m:e-p270:32:32-p271:32:32-p272:64:64-i64:64-i128:128-f80:128-n8:16:32:64-S128"
target triple = "x86_64-pc-linux-gnu"

%"struct.cv::phase_unwrapping::HistogramPhaseUnwrapping::Params" = type { i32, i32, float, i32, i32 }

; Function Attrs: mustprogress nounwind uwtable
define void @_ZN2cv16phase_unwrapping24HistogramPhaseUnwrapping6ParamsC2Ev(ptr noundef nonnull align 4 dereferenceable(20) %0) unnamed_addr #0 align 2 {
  %2 = alloca ptr, align 8
  store ptr %0, ptr %2, align 8, !tbaa !3
  %3 = load ptr, ptr %2, align 8
  %4 = getelementptr inbounds nuw %"struct.cv::phase_unwrapping::HistogramPhaseUnwrapping::Params", ptr %3, i32 0, i32 0
  store i32 800, ptr %4, align 4, !tbaa !8
  %5 = getelementptr inbounds nuw %"struct.cv::phase_unwrapping::HistogramPhaseUnwrapping::Params", ptr %3, i32 0, i32 1
  store i32 600, ptr %5, align 4, !tbaa !12
  %6 = getelementptr inbounds nuw %"struct.cv::phase_unwrapping::HistogramPhaseUnwrapping::Params", ptr %3, i32 0, i32 2
  store float 0x403D9BDB20000000, ptr %6, align 4, !tbaa !13
  %7 = getelementptr inbounds nuw %"struct.cv::phase_unwrapping::HistogramPhaseUnwrapping::Params", ptr %3, i32 0, i32 3
  store i32 10, ptr %7, align 4, !tbaa !14
  %8 = getelementptr inbounds nuw %"struct.cv::phase_unwrapping::HistogramPhaseUnwrapping::Params", ptr %3, i32 0, i32 4
  store i32 5, ptr %8, align 4, !tbaa !15
  ret void
}